target datalayout = "e-m:e-p270:32:32-p271:32:32-p272:64:64-i64:64-i128:128-f80:128-n8:16:32:64-S128"
target triple = "x86_64-unknown-linux-gnu"

%struct.MigrationIncomingState = type { ptr, [2 x ptr], ptr, ptr, %struct.QemuSemaphore, %struct.QemuEvent, %struct.AnnounceTimer, i64, i8, %struct.QemuThread, i8, i8, %struct.QemuThread, i32, i32, ptr, %struct.QemuMutex, ptr, i32, ptr, %struct.QemuSemaphore, %struct.QemuThread, i32, %struct.QemuMutex, ptr, ptr, ptr, ptr, i32, ptr, ptr, %struct.QemuSemaphore, ptr, %struct.QemuSemaphore, %struct.QemuSemaphore, %struct.QemuSemaphore, ptr, ptr, i32, %struct.QemuMutex, %struct.QemuCond, i32 }
%struct.QemuEvent = type { i32, i8 }
%struct.AnnounceTimer = type { ptr, %struct.AnnounceParameters, i32, i32 }
%struct.AnnounceParameters = type { i64, i64, i64, i64, i8, ptr, ptr }
%struct.QemuThread = type { i64 }
%struct.QemuSemaphore = type { %struct.QemuMutex, %struct.QemuCond, i32 }
%struct.QemuMutex = type { %union.pthread_mutex_t, i8 }
%union.pthread_mutex_t = type { %struct.__pthread_mutex_s }
%struct.__pthread_mutex_s = type { i32, i32, i32, i32, i32, i16, i16, %struct.__pthread_internal_list }
%struct.__pthread_internal_list = type { ptr, ptr }
%struct.QemuCond = type { %union.pthread_cond_t, i8 }
%union.pthread_cond_t = type { %struct.__pthread_cond_s }
%struct.__pthread_cond_s = type { %union.__atomic_wide_counter, %union.__atomic_wide_counter, [2 x i32], [2 x i32], i32, i32, [2 x i32] }
%union.__atomic_wide_counter = type { i64 }

@.str.2 = private unnamed_addr constant [30 x i8] c"../qemu/migration/migration.c\00", align 1
@current_incoming = internal global ptr null, align 8
@.str.6 = private unnamed_addr constant [17 x i8] c"current_incoming\00", align 1
@__PRETTY_FUNCTION__.migration_incoming_get_current = private unnamed_addr constant [61 x i8] c"MigrationIncomingState *migration_incoming_get_current(void)\00", align 1

; Function Attrs: nounwind sspstrong uwtable
define dso_local ptr @migration_incoming_get_current() #0 {
entry:
  %0 = load ptr, ptr @current_incoming, align 8
  %tobool = icmp ne ptr %0, null
  br i1 %tobool, label %if.then, label %if.else

if.then:                                          ; preds = %entry
  br label %if.end

if.else:                                          ; preds = %entry
  call void @__assert_fail(ptr noundef @.str.6, ptr noundef @.str.2, i32 noundef 252, ptr noundef @__PRETTY_FUNCTION__.migration_incoming_get_current) #13
  unreachable

if.end:                                           ; preds = %if.then
  %1 = load ptr, ptr @current_incoming, align 8
  ret ptr %1
}

; Function Attrs: nounwind sspstrong uwtable
define dso_local void @migration_incoming_process() #0 {
entry:
  %co = alloca ptr, align 8
  %call = call ptr @qemu_coroutine_create(ptr noundef @process_incoming_migration_co, ptr noundef null)
  store ptr %call, ptr %co, align 8
  %0 = load ptr, ptr %co, align 8
  call void @qemu_coroutine_enter(ptr noundef %0)
  ret void
}

; Function Attrs: nounwind sspstrong uwtable
define internal zeroext i1 @migration_incoming_setup(ptr noundef %f, ptr noundef %errp) #0 {
entry:
  %f.addr = alloca ptr, align 8
  %errp.addr = alloca ptr, align 8
  %mis = alloca ptr, align 8
  store ptr %f, ptr %f.addr, align 8
  store ptr %errp, ptr %errp.addr, align 8
  %call = call ptr @migration_incoming_get_current()
  store ptr %call, ptr %mis, align 8
  %0 = load ptr, ptr %mis, align 8
  %from_src_file = getelementptr inbounds %struct.MigrationIncomingState, ptr %0, i32 0, i32 0
  %1 = load ptr, ptr %from_src_file, align 8
  %tobool = icmp ne ptr %1, null
  br i1 %tobool, label %if.end, label %if.then

if.then:                                          ; preds = %entry
  %2 = load ptr, ptr %f.addr, align 8
  %3 = load ptr, ptr %mis, align 8
  %from_src_file1 = getelementptr inbounds %struct.MigrationIncomingState, ptr %3, i32 0, i32 0
  store ptr %2, ptr %from_src_file1, align 8
  br label %if.end

if.end:                                           ; preds = %if.then, %entry
  %4 = load ptr, ptr %f.addr, align 8
  call void @qemu_file_set_blocking(ptr noundef %4, i1 noundef zeroext false)
  ret i1 true
}

; Function Attrs: nounwind sspstrong uwtable
define dso_local void @migration_fd_process_incoming(ptr noundef %f, ptr noundef %errp) #0 {
entry:
  %f.addr = alloca ptr, align 8
  %errp.addr = alloca ptr, align 8
  store ptr %f, ptr %f.addr, align 8
  store ptr %errp, ptr %errp.addr, align 8
  %0 = load ptr, ptr %f.addr, align 8
  %1 = load ptr, ptr %errp.addr, align 8
  %call = call zeroext i1 @migration_incoming_setup(ptr noundef %0, ptr noundef %1)
  br i1 %call, label %if.end, label %if.then

if.then:                                          ; preds = %entry
  br label %return

if.end:                                           ; preds = %entry
  %call1 = call zeroext i1 @postcopy_try_recover()
  br i1 %call1, label %if.then2, label %if.end3

if.then2:                                         ; preds = %if.end
  br label %return

if.end3:                                          ; preds = %if.end
  call void @migration_incoming_process()
  br label %return

return:                                           ; preds = %if.end3, %if.then2, %if.then
  ret void
}