; Function Attrs: nounwind sspstrong uwtable
define dso_local void @migration_fd_process_incoming(ptr noundef %f, ptr noundef readnone captures(none) %errp) local_unnamed_addr #0 {
entry:
  %0 = load ptr, ptr @current_incoming, align 8
  %tobool.not.i.i = icmp eq ptr %0, null
  br i1 %tobool.not.i.i, label %if.else.i.i, label %migration_incoming_get_current.exit.i

if.else.i.i:                                      ; preds = %entry
  tail call void @__assert_fail(ptr noundef nonnull @.str.6, ptr noundef nonnull @.str.2, i32 noundef 252, ptr noundef nonnull @__PRETTY_FUNCTION__.migration_incoming_get_current) #20
  unreachable

migration_incoming_get_current.exit.i:            ; preds = %entry
  %1 = load ptr, ptr %0, align 8
  %tobool.not.i = icmp eq ptr %1, null
  br i1 %tobool.not.i, label %if.then.i, label %migration_incoming_setup.exit

if.then.i:                                        ; preds = %migration_incoming_get_current.exit.i
  store ptr %f, ptr %0, align 8
  br label %migration_incoming_setup.exit

migration_incoming_setup.exit:                    ; preds = %migration_incoming_get_current.exit.i, %if.then.i
  tail call void @qemu_file_set_blocking(ptr noundef %f, i1 noundef zeroext false) #19
  %call1 = tail call fastcc zeroext i1 @postcopy_try_recover()
  br i1 %call1, label %return, label %if.end3

if.end3:                                          ; preds = %migration_incoming_setup.exit
  %call.i = tail call ptr @qemu_coroutine_create(ptr noundef nonnull @process_incoming_migration_co, ptr noundef null) #19
  tail call void @qemu_coroutine_enter(ptr noundef %call.i) #19
  br label %return

return:                                           ; preds = %migration_incoming_setup.exit, %if.end3
  ret void
}